target datalayout = "e-m:e-p270:32:32-p271:32:32-p272:64:64-i64:64-i128:128-f80:128-n8:16:32:64-S128"
target triple = "x86_64-pc-linux-gnu"

%struct.Abc_Frame_t_ = type { ptr, ptr, ptr, ptr, ptr, ptr, ptr, ptr, ptr, ptr, i32, i32, i32, i32, i32, ptr, float, float, i32, i32, ptr, ptr, ptr, double, double, ptr, ptr, ptr, ptr, ptr, ptr, ptr, ptr, ptr, ptr, ptr, ptr, float, ptr, i32, ptr, ptr, ptr, ptr, ptr, i32, i32, i32, i32, i32, i32, ptr, ptr, ptr, ptr, ptr, ptr, i32, i32, ptr, ptr, ptr, ptr, ptr, ptr, ptr, ptr, ptr, ptr, ptr, ptr, ptr, ptr, ptr, ptr, ptr, ptr, ptr, ptr, ptr, ptr, ptr, ptr, ptr, ptr, ptr, ptr, ptr, ptr }

@globalUtilOptind = external global i32, align 4
@.str.7 = private unnamed_addr constant [61 x i8] c"Command line switch \22-T\22 should be followed by a file name.\0A\00", align 1
@.str.25 = private unnamed_addr constant [4 x i8] c"yes\00", align 1
@.str.26 = private unnamed_addr constant [3 x i8] c"no\00", align 1
@.str.34 = private unnamed_addr constant [62 x i8] c"\09-v     : toggle printing verbose information [default = %s]\0A\00", align 1
@.str.35 = private unnamed_addr constant [35 x i8] c"\09-h     : print the command usage\0A\00", align 1
@.str.39 = private unnamed_addr constant [28 x i8] c"The design is not entered.\0A\00", align 1
@.str.48 = private unnamed_addr constant [6 x i8] c"Tcrvh\00", align 1
@.str.49 = private unnamed_addr constant [53 x i8] c"usage: %%collapse [-T <module>] [-crvh] <file_name>\0A\00", align 1
@.str.50 = private unnamed_addr constant [52 x i8] c"\09         collapse hierarchical design into an AIG\0A\00", align 1
@.str.51 = private unnamed_addr constant [65 x i8] c"\09-T     : specify the top module of the design [default = none]\0A\00", align 1
@.str.52 = private unnamed_addr constant [78 x i8] c"\09-c     : toggle complementing miter outputs after collapsing [default = %s]\0A\00", align 1
@.str.53 = private unnamed_addr constant [73 x i8] c"\09-r     : toggle bit order reversal in the word-level IO [default = %s]\0A\00", align 1

; Function Attrs: inlinehint nounwind uwtable
define internal ptr @Wln_AbcGetRtl(ptr noundef %0) #2 {
  %2 = alloca ptr, align 8
  store ptr %0, ptr %2, align 8, !tbaa !3
  %3 = load ptr, ptr %2, align 8, !tbaa !3
  %4 = getelementptr inbounds nuw %struct.Abc_Frame_t_, ptr %3, i32 0, i32 73
  %5 = load ptr, ptr %4, align 8, !tbaa !26
  ret ptr %5
}

; Function Attrs: nounwind uwtable
define internal i32 @Abc_CommandCollapse(ptr noundef %0, i32 noundef %1, ptr noundef %2) #0 {
  %4 = alloca i32, align 4
  %5 = alloca ptr, align 8
  %6 = alloca i32, align 4
  %7 = alloca ptr, align 8
  %8 = alloca ptr, align 8
  %9 = alloca ptr, align 8
  %10 = alloca ptr, align 8
  %11 = alloca i32, align 4
  %12 = alloca i32, align 4
  %13 = alloca i32, align 4
  %14 = alloca i32, align 4
  %15 = alloca i32, align 4
  store ptr %0, ptr %5, align 8, !tbaa !3
  store i32 %1, ptr %6, align 4, !tbaa !8
  store ptr %2, ptr %7, align 8, !tbaa !10
  call void @llvm.lifetime.start.p0(i64 8, ptr %8) #7
  store ptr null, ptr %8, align 8, !tbaa !18
  call void @llvm.lifetime.start.p0(i64 8, ptr %9) #7
  %16 = load ptr, ptr %5, align 8, !tbaa !3
  %17 = call ptr @Wln_AbcGetRtl(ptr noundef %16)
  store ptr %17, ptr %9, align 8, !tbaa !20
  call void @llvm.lifetime.start.p0(i64 8, ptr %10) #7
  store ptr null, ptr %10, align 8, !tbaa !12
  call void @llvm.lifetime.start.p0(i64 4, ptr %11) #7
  call void @llvm.lifetime.start.p0(i64 4, ptr %12) #7
  store i32 0, ptr %12, align 4, !tbaa !8
  call void @llvm.lifetime.start.p0(i64 4, ptr %13) #7
  store i32 0, ptr %13, align 4, !tbaa !8
  call void @llvm.lifetime.start.p0(i64 4, ptr %14) #7
  store i32 0, ptr %14, align 4, !tbaa !8
  call void (...) @Extra_UtilGetoptReset()
  br label %18

18:                                               ; preds = %49, %3
  %19 = load i32, ptr %6, align 4, !tbaa !8
  %20 = load ptr, ptr %7, align 8, !tbaa !10
  %21 = call i32 @Extra_UtilGetopt(i32 noundef %19, ptr noundef %20, ptr noundef @.str.48)
  store i32 %21, ptr %11, align 4, !tbaa !8
  %22 = icmp ne i32 %21, -1
  br i1 %22, label %23, label %50

23:                                               ; preds = %18
  %24 = load i32, ptr %11, align 4, !tbaa !8
  switch i32 %24, label %48 [
    i32 84, label %25
    i32 99, label %38
    i32 114, label %41
    i32 118, label %44
    i32 104, label %47
  ]

25:                                               ; preds = %23
  %26 = load i32, ptr @globalUtilOptind, align 4, !tbaa !8
  %27 = load i32, ptr %6, align 4, !tbaa !8
  %28 = icmp sge i32 %26, %27
  br i1 %28, label %29, label %30

29:                                               ; preds = %25
  call void (i32, ptr, ...) @Abc_Print(i32 noundef -1, ptr noundef @.str.7)
  br label %68

30:                                               ; preds = %25
  %31 = load ptr, ptr %7, align 8, !tbaa !10
  %32 = load i32, ptr @globalUtilOptind, align 4, !tbaa !8
  %33 = sext i32 %32 to i64
  %34 = getelementptr inbounds ptr, ptr %31, i64 %33
  %35 = load ptr, ptr %34, align 8, !tbaa !12
  store ptr %35, ptr %10, align 8, !tbaa !12
  %36 = load i32, ptr @globalUtilOptind, align 4, !tbaa !8
  %37 = add nsw i32 %36, 1
  store i32 %37, ptr @globalUtilOptind, align 4, !tbaa !8
  br label %49

38:                                               ; preds = %23
  %39 = load i32, ptr %12, align 4, !tbaa !8
  %40 = xor i32 %39, 1
  store i32 %40, ptr %12, align 4, !tbaa !8
  br label %49

41:                                               ; preds = %23
  %42 = load i32, ptr %13, align 4, !tbaa !8
  %43 = xor i32 %42, 1
  store i32 %43, ptr %13, align 4, !tbaa !8
  br label %49

44:                                               ; preds = %23
  %45 = load i32, ptr %14, align 4, !tbaa !8
  %46 = xor i32 %45, 1
  store i32 %46, ptr %14, align 4, !tbaa !8
  br label %49

47:                                               ; preds = %23
  br label %68

48:                                               ; preds = %23
  br label %68

49:                                               ; preds = %44, %41, %38, %30
  br label %18, !llvm.loop !24

50:                                               ; preds = %18
  %51 = load ptr, ptr %9, align 8, !tbaa !20
  %52 = icmp eq ptr %51, null
  br i1 %52, label %53, label %55

53:                                               ; preds = %50
  %54 = call i32 (ptr, ...) @printf(ptr noundef @.str.39)
  store i32 1, ptr %4, align 4
  store i32 1, ptr %15, align 4
  br label %78

55:                                               ; preds = %50
  %56 = load ptr, ptr %9, align 8, !tbaa !20
  %57 = load ptr, ptr %10, align 8, !tbaa !12
  %58 = load i32, ptr %13, align 4, !tbaa !8
  %59 = load i32, ptr %14, align 4, !tbaa !8
  %60 = call ptr @Rtl_LibCollapse(ptr noundef %56, ptr noundef %57, i32 noundef %58, i32 noundef %59)
  store ptr %60, ptr %8, align 8, !tbaa !18
  %61 = load i32, ptr %12, align 4, !tbaa !8
  %62 = icmp ne i32 %61, 0
  br i1 %62, label %63, label %65

63:                                               ; preds = %55
  %64 = load ptr, ptr %8, align 8, !tbaa !18
  call void @Gia_ManInvertPos(ptr noundef %64)
  br label %65

65:                                               ; preds = %63, %55
  %66 = load ptr, ptr %5, align 8, !tbaa !3
  %67 = load ptr, ptr %8, align 8, !tbaa !18
  call void @Abc_FrameUpdateGia(ptr noundef %66, ptr noundef %67)
  store i32 0, ptr %4, align 4
  store i32 1, ptr %15, align 4
  br label %78

68:                                               ; preds = %48, %47, %29
  call void (i32, ptr, ...) @Abc_Print(i32 noundef -2, ptr noundef @.str.49)
  call void (i32, ptr, ...) @Abc_Print(i32 noundef -2, ptr noundef @.str.50)
  call void (i32, ptr, ...) @Abc_Print(i32 noundef -2, ptr noundef @.str.51)
  %69 = load i32, ptr %12, align 4, !tbaa !8
  %70 = icmp ne i32 %69, 0
  %71 = select i1 %70, ptr @.str.25, ptr @.str.26
  call void (i32, ptr, ...) @Abc_Print(i32 noundef -2, ptr noundef @.str.52, ptr noundef %71)
  %72 = load i32, ptr %13, align 4, !tbaa !8
  %73 = icmp ne i32 %72, 0
  %74 = select i1 %73, ptr @.str.25, ptr @.str.26
  call void (i32, ptr, ...) @Abc_Print(i32 noundef -2, ptr noundef @.str.53, ptr noundef %74)
  %75 = load i32, ptr %14, align 4, !tbaa !8
  %76 = icmp ne i32 %75, 0
  %77 = select i1 %76, ptr @.str.25, ptr @.str.26
  call void (i32, ptr, ...) @Abc_Print(i32 noundef -2, ptr noundef @.str.34, ptr noundef %77)
  call void (i32, ptr, ...) @Abc_Print(i32 noundef -2, ptr noundef @.str.35)
  store i32 1, ptr %4, align 4
  store i32 1, ptr %15, align 4
  br label %78

78:                                               ; preds = %68, %65, %53
  call void @llvm.lifetime.end.p0(i64 4, ptr %14) #7
  call void @llvm.lifetime.end.p0(i64 4, ptr %13) #7
  call void @llvm.lifetime.end.p0(i64 4, ptr %12) #7
  call void @llvm.lifetime.end.p0(i64 4, ptr %11) #7
  call void @llvm.lifetime.end.p0(i64 8, ptr %10) #7
  call void @llvm.lifetime.end.p0(i64 8, ptr %9) #7
  call void @llvm.lifetime.end.p0(i64 8, ptr %8) #7
  %79 = load i32, ptr %4, align 4
  ret i32 %79
}