; Function Attrs: nounwind uwtable
define internal range(i32 0, 2) i32 @Abc_CommandCollapse(ptr noundef %0, i32 noundef %1, ptr noundef %2) #0 {
  %4 = getelementptr i8, ptr %0, i64 520
  %.val = load ptr, ptr %4, align 8, !tbaa !12
  tail call void (...) @Extra_UtilGetoptReset() #10
  br label %.outer

.outer:                                           ; preds = %10, %3
  %.026.ph = phi ptr [ %13, %10 ], [ null, %3 ]
  %.023.ph = phi i32 [ %.023.ph81, %10 ], [ 0, %3 ]
  %.021.ph = phi i32 [ %.021.ph85, %10 ], [ 0, %3 ]
  %.0.ph = phi i32 [ %.0, %10 ], [ 0, %3 ]
  br label %.outer80

.outer80:                                         ; preds = %.outer, %15
  %.023.ph81 = phi i32 [ %.023.ph, %.outer ], [ %16, %15 ]
  %.021.ph82 = phi i32 [ %.021.ph, %.outer ], [ %.021.ph85, %15 ]
  %.0.ph83 = phi i32 [ %.0.ph, %.outer ], [ %.0, %15 ]
  br label %.outer84

.outer84:                                         ; preds = %.outer80, %17
  %.021.ph85 = phi i32 [ %.021.ph82, %.outer80 ], [ %18, %17 ]
  %.0.ph86 = phi i32 [ %.0.ph83, %.outer80 ], [ %.0, %17 ]
  br label %5

5:                                                ; preds = %.outer84, %19
  %.0 = phi i32 [ %20, %19 ], [ %.0.ph86, %.outer84 ]
  %6 = tail call i32 @Extra_UtilGetopt(i32 noundef %1, ptr noundef %2, ptr noundef nonnull @.str.48) #10
  switch i32 %6, label %.loopexit [
    i32 -1, label %21
    i32 84, label %7
    i32 99, label %15
    i32 114, label %17
    i32 118, label %19
  ]

7:                                                ; preds = %5
  %8 = load i32, ptr @globalUtilOptind, align 4, !tbaa !3
  %.not32 = icmp slt i32 %8, %1
  br i1 %.not32, label %10, label %9

9:                                                ; preds = %7
  tail call void (i32, ptr, ...) @Abc_Print(i32 noundef -1, ptr noundef nonnull @.str.7)
  br label %.loopexit

10:                                               ; preds = %7
  %11 = sext i32 %8 to i64
  %12 = getelementptr inbounds ptr, ptr %2, i64 %11
  %13 = load ptr, ptr %12, align 8, !tbaa !7
  %14 = add nsw i32 %8, 1
  store i32 %14, ptr @globalUtilOptind, align 4, !tbaa !3
  br label %.outer, !llvm.loop !29

15:                                               ; preds = %5
  %16 = xor i32 %.023.ph81, 1
  br label %.outer80, !llvm.loop !29

17:                                               ; preds = %5
  %18 = xor i32 %.021.ph85, 1
  br label %.outer84, !llvm.loop !29

19:                                               ; preds = %5
  %20 = xor i32 %.0, 1
  br label %5, !llvm.loop !29

21:                                               ; preds = %5
  %22 = icmp eq ptr %.val, null
  br i1 %22, label %23, label %24

23:                                               ; preds = %21
  %puts = tail call i32 @puts(ptr nonnull dereferenceable(1) @str.6)
  br label %31

24:                                               ; preds = %21
  %25 = tail call ptr @Rtl_LibCollapse(ptr noundef nonnull %.val, ptr noundef %.026.ph, i32 noundef %.021.ph85, i32 noundef %.0) #10
  %.not31 = icmp eq i32 %.023.ph81, 0
  br i1 %.not31, label %27, label %26

26:                                               ; preds = %24
  tail call void @Gia_ManInvertPos(ptr noundef %25) #10
  br label %27

27:                                               ; preds = %26, %24
  tail call void @Abc_FrameUpdateGia(ptr noundef %0, ptr noundef %25) #10
  br label %31

.loopexit:                                        ; preds = %5, %9
  tail call void (i32, ptr, ...) @Abc_Print(i32 noundef -2, ptr noundef nonnull @.str.49)
  tail call void (i32, ptr, ...) @Abc_Print(i32 noundef -2, ptr noundef nonnull @.str.50)
  tail call void (i32, ptr, ...) @Abc_Print(i32 noundef -2, ptr noundef nonnull @.str.51)
  %.not33 = icmp eq i32 %.023.ph81, 0
  %28 = select i1 %.not33, ptr @.str.26, ptr @.str.25
  tail call void (i32, ptr, ...) @Abc_Print(i32 noundef -2, ptr noundef nonnull @.str.52, ptr noundef nonnull %28)
  %.not34 = icmp eq i32 %.021.ph85, 0
  %29 = select i1 %.not34, ptr @.str.26, ptr @.str.25
  tail call void (i32, ptr, ...) @Abc_Print(i32 noundef -2, ptr noundef nonnull @.str.53, ptr noundef nonnull %29)
  %.not35 = icmp eq i32 %.0, 0
  %30 = select i1 %.not35, ptr @.str.26, ptr @.str.25
  tail call void (i32, ptr, ...) @Abc_Print(i32 noundef -2, ptr noundef nonnull @.str.34, ptr noundef nonnull %30)
  tail call void (i32, ptr, ...) @Abc_Print(i32 noundef -2, ptr noundef nonnull @.str.35)
  br label %31

31:                                               ; preds = %.loopexit, %27, %23
  %.025 = phi i32 [ 1, %.loopexit ], [ 1, %23 ], [ 0, %27 ]
  ret i32 %.025
}